target datalayout = "e-m:e-p270:32:32-p271:32:32-p272:64:64-i64:64-i128:128-f80:128-n8:16:32:64-S128"
target triple = "x86_64-pc-linux-gnu"

%"class.std::vector" = type { %"struct.std::_Vector_base" }
%"struct.std::_Vector_base" = type { %"struct.std::_Vector_base<float, std::allocator<float>>::_Vector_impl" }
%"struct.std::_Vector_base<float, std::allocator<float>>::_Vector_impl" = type { %"struct.std::_Vector_base<float, std::allocator<float>>::_Vector_impl_data" }
%"struct.std::_Vector_base<float, std::allocator<float>>::_Vector_impl_data" = type { ptr, ptr, ptr }
%"struct.faiss::ScalarQuantizer::SQuantizer" = type { ptr }
%"struct.faiss::(anonymous namespace)::Quantizer8bitDirect" = type { %"struct.faiss::ScalarQuantizer::SQuantizer", i64 }
%"struct.faiss::ScalarQuantizer::SQDistanceComputer" = type { %"struct.faiss::FlatCodesDistanceComputer", ptr }
%"struct.faiss::FlatCodesDistanceComputer" = type { %"struct.faiss::DistanceComputer", ptr, i64 }
%"struct.faiss::DistanceComputer" = type { ptr }
%"struct.faiss::(anonymous namespace)::DCTemplate.19" = type { %"struct.faiss::ScalarQuantizer::SQDistanceComputer", %"struct.faiss::(anonymous namespace)::Quantizer8bitDirect" }
%"struct.faiss::(anonymous namespace)::SimilarityL2" = type <{ ptr, ptr, float, [4 x i8] }>
%"struct.faiss::InvertedListScanner" = type { ptr, i64, i8, i8, ptr, i64 }
%"struct.faiss::(anonymous namespace)::IVFSQScannerL2.50" = type { %"struct.faiss::InvertedListScanner", %"struct.faiss::(anonymous namespace)::DCTemplate.19", i8, ptr, ptr, %"class.std::vector" }

; Function Attrs: mustprogress nounwind uwtable
define internal void @_ZN5faiss12_GLOBAL__N_112SimilarityL2ILi1EEC2EPKf(ptr noundef nonnull align 8 dereferenceable(20) %0, ptr noundef %1) unnamed_addr #1 align 2 {
  %3 = alloca ptr, align 8
  %4 = alloca ptr, align 8
  store ptr %0, ptr %3, align 8
  store ptr %1, ptr %4, align 8
  %5 = load ptr, ptr %3, align 8
  %6 = getelementptr inbounds %"struct.faiss::(anonymous namespace)::SimilarityL2", ptr %5, i32 0, i32 0
  %7 = load ptr, ptr %4, align 8
  store ptr %7, ptr %6, align 8
  ret void
}

; Function Attrs: mustprogress uwtable
define internal noundef float @_ZNK5faiss12_GLOBAL__N_110DCTemplateINS0_19Quantizer8bitDirectILi1EEENS0_12SimilarityL2ILi1EEELi1EE16compute_distanceEPKfPKh(ptr noundef nonnull align 8 dereferenceable(48) %0, ptr noundef %1, ptr noundef %2) #0 align 2 {
  %4 = alloca ptr, align 8
  %5 = alloca ptr, align 8
  %6 = alloca i32, align 4
  %7 = alloca ptr, align 8
  %8 = alloca float, align 4
  %9 = alloca float, align 4
  %10 = alloca ptr, align 8
  %11 = alloca ptr, align 8
  %12 = alloca ptr, align 8
  %13 = alloca ptr, align 8
  %14 = alloca ptr, align 8
  %15 = alloca %"struct.faiss::(anonymous namespace)::SimilarityL2", align 8
  %16 = alloca i64, align 8
  %17 = alloca float, align 4
  store ptr %0, ptr %12, align 8
  store ptr %1, ptr %13, align 8
  store ptr %2, ptr %14, align 8
  %18 = load ptr, ptr %12, align 8
  %19 = load ptr, ptr %13, align 8
  call void @_ZN5faiss12_GLOBAL__N_112SimilarityL2ILi1EEC2EPKf(ptr noundef nonnull align 8 dereferenceable(20) %15, ptr noundef %19)
  store ptr %15, ptr %11, align 8
  %20 = load ptr, ptr %11, align 8
  %21 = getelementptr inbounds %"struct.faiss::(anonymous namespace)::SimilarityL2", ptr %20, i32 0, i32 2
  store float 0.000000e+00, ptr %21, align 8
  %22 = load ptr, ptr %20, align 8
  %23 = getelementptr inbounds %"struct.faiss::(anonymous namespace)::SimilarityL2", ptr %20, i32 0, i32 1
  store ptr %22, ptr %23, align 8
  store i64 0, ptr %16, align 8
  br label %24

24:                                               ; preds = %54, %3
  %25 = load i64, ptr %16, align 8
  %26 = getelementptr inbounds %"struct.faiss::(anonymous namespace)::DCTemplate.19", ptr %18, i32 0, i32 1
  %27 = getelementptr inbounds %"struct.faiss::(anonymous namespace)::Quantizer8bitDirect", ptr %26, i32 0, i32 1
  %28 = load i64, ptr %27, align 8
  %29 = icmp ult i64 %25, %28
  br i1 %29, label %30, label %57

30:                                               ; preds = %24
  %31 = getelementptr inbounds %"struct.faiss::(anonymous namespace)::DCTemplate.19", ptr %18, i32 0, i32 1
  %32 = load ptr, ptr %14, align 8
  %33 = load i64, ptr %16, align 8
  %34 = trunc i64 %33 to i32
  store ptr %31, ptr %4, align 8
  store ptr %32, ptr %5, align 8
  store i32 %34, ptr %6, align 4
  %35 = load ptr, ptr %5, align 8
  %36 = load i32, ptr %6, align 4
  %37 = sext i32 %36 to i64
  %38 = getelementptr inbounds i8, ptr %35, i64 %37
  %39 = load i8, ptr %38, align 1
  %40 = uitofp i8 %39 to float
  store float %40, ptr %17, align 4
  %41 = load float, ptr %17, align 4
  store ptr %15, ptr %7, align 8
  store float %41, ptr %8, align 4
  %42 = load ptr, ptr %7, align 8
  %43 = getelementptr inbounds %"struct.faiss::(anonymous namespace)::SimilarityL2", ptr %42, i32 0, i32 1
  %44 = load ptr, ptr %43, align 8
  %45 = getelementptr inbounds float, ptr %44, i32 1
  store ptr %45, ptr %43, align 8
  %46 = load float, ptr %44, align 4
  %47 = load float, ptr %8, align 4
  %48 = fsub float %46, %47
  store float %48, ptr %9, align 4
  %49 = load float, ptr %9, align 4
  %50 = load float, ptr %9, align 4
  %51 = getelementptr inbounds %"struct.faiss::(anonymous namespace)::SimilarityL2", ptr %42, i32 0, i32 2
  %52 = load float, ptr %51, align 8
  %53 = call float @llvm.fmuladd.f32(float %49, float %50, float %52)
  store float %53, ptr %51, align 8
  br label %54

54:                                               ; preds = %30
  %55 = load i64, ptr %16, align 8
  %56 = add i64 %55, 1
  store i64 %56, ptr %16, align 8
  br label %24, !llvm.loop !60

57:                                               ; preds = %24
  store ptr %15, ptr %10, align 8
  %58 = load ptr, ptr %10, align 8
  %59 = getelementptr inbounds %"struct.faiss::(anonymous namespace)::SimilarityL2", ptr %58, i32 0, i32 2
  %60 = load float, ptr %59, align 8
  ret float %60
}

; Function Attrs: mustprogress uwtable
define internal noundef float @_ZNK5faiss12_GLOBAL__N_110DCTemplateINS0_19Quantizer8bitDirectILi1EEENS0_12SimilarityL2ILi1EEELi1EE13query_to_codeEPKh(ptr noundef nonnull align 8 dereferenceable(48) %0, ptr noundef %1) unnamed_addr #0 align 2 {
  %3 = alloca ptr, align 8
  %4 = alloca ptr, align 8
  store ptr %0, ptr %3, align 8
  store ptr %1, ptr %4, align 8
  %5 = load ptr, ptr %3, align 8
  %6 = getelementptr inbounds %"struct.faiss::ScalarQuantizer::SQDistanceComputer", ptr %5, i32 0, i32 1
  %7 = load ptr, ptr %6, align 8
  %8 = load ptr, ptr %4, align 8
  %9 = call noundef float @_ZNK5faiss12_GLOBAL__N_110DCTemplateINS0_19Quantizer8bitDirectILi1EEENS0_12SimilarityL2ILi1EEELi1EE16compute_distanceEPKfPKh(ptr noundef nonnull align 8 dereferenceable(48) %5, ptr noundef %7, ptr noundef %8)
  ret float %9
}

; Function Attrs: mustprogress uwtable
define internal void @_ZNK5faiss12_GLOBAL__N_114IVFSQScannerL2INS0_10DCTemplateINS0_19Quantizer8bitDirectILi1EEENS0_12SimilarityL2ILi1EEELi1EEELi0EE16scan_codes_rangeEmPKhPKlfRNS_16RangeQueryResultE(ptr noundef nonnull align 8 dereferenceable(136) %0, i64 noundef %1, ptr noundef %2, ptr noundef %3, float noundef %4, ptr noundef nonnull align 8 dereferenceable(24) %5) unnamed_addr #0 align 2 {
  %7 = alloca ptr, align 8
  %8 = alloca i64, align 8
  %9 = alloca ptr, align 8
  %10 = alloca ptr, align 8
  %11 = alloca float, align 4
  %12 = alloca ptr, align 8
  %13 = alloca i64, align 8
  %14 = alloca float, align 4
  %15 = alloca i64, align 8
  store ptr %0, ptr %7, align 8
  store i64 %1, ptr %8, align 8
  store ptr %2, ptr %9, align 8
  store ptr %3, ptr %10, align 8
  store float %4, ptr %11, align 4
  store ptr %5, ptr %12, align 8
  %16 = load ptr, ptr %7, align 8
  store i64 0, ptr %13, align 8
  br label %17

17:                                               ; preds = %49, %6
  %18 = load i64, ptr %13, align 8
  %19 = load i64, ptr %8, align 8
  %20 = icmp ult i64 %18, %19
  br i1 %20, label %21, label %56

21:                                               ; preds = %17
  %22 = getelementptr inbounds %"struct.faiss::(anonymous namespace)::IVFSQScannerL2.50", ptr %16, i32 0, i32 1
  %23 = load ptr, ptr %9, align 8
  %24 = call noundef float @_ZNK5faiss12_GLOBAL__N_110DCTemplateINS0_19Quantizer8bitDirectILi1EEENS0_12SimilarityL2ILi1EEELi1EE13query_to_codeEPKh(ptr noundef nonnull align 8 dereferenceable(48) %22, ptr noundef %23)
  store float %24, ptr %14, align 4
  %25 = load float, ptr %14, align 4
  %26 = load float, ptr %11, align 4
  %27 = fcmp olt float %25, %26
  br i1 %27, label %28, label %48

28:                                               ; preds = %21
  %29 = getelementptr inbounds %"struct.faiss::InvertedListScanner", ptr %16, i32 0, i32 3
  %30 = load i8, ptr %29, align 1
  %31 = trunc i8 %30 to i1
  br i1 %31, label %32, label %38

32:                                               ; preds = %28
  %33 = getelementptr inbounds %"struct.faiss::InvertedListScanner", ptr %16, i32 0, i32 1
  %34 = load i64, ptr %33, align 8
  %35 = shl i64 %34, 32
  %36 = load i64, ptr %13, align 8
  %37 = or i64 %35, %36
  br label %43

38:                                               ; preds = %28
  %39 = load ptr, ptr %10, align 8
  %40 = load i64, ptr %13, align 8
  %41 = getelementptr inbounds i64, ptr %39, i64 %40
  %42 = load i64, ptr %41, align 8
  br label %43

43:                                               ; preds = %38, %32
  %44 = phi i64 [ %37, %32 ], [ %42, %38 ]
  store i64 %44, ptr %15, align 8
  %45 = load ptr, ptr %12, align 8
  %46 = load float, ptr %14, align 4
  %47 = load i64, ptr %15, align 8
  call void @_ZN5faiss16RangeQueryResult3addEfl(ptr noundef nonnull align 8 dereferenceable(24) %45, float noundef %46, i64 noundef %47)
  br label %48

48:                                               ; preds = %43, %21
  br label %49

49:                                               ; preds = %48
  %50 = load i64, ptr %13, align 8
  %51 = add i64 %50, 1
  store i64 %51, ptr %13, align 8
  %52 = getelementptr inbounds %"struct.faiss::InvertedListScanner", ptr %16, i32 0, i32 5
  %53 = load i64, ptr %52, align 8
  %54 = load ptr, ptr %9, align 8
  %55 = getelementptr inbounds i8, ptr %54, i64 %53
  store ptr %55, ptr %9, align 8
  br label %17, !llvm.loop !125

56:                                               ; preds = %17
  ret void
}