; Function Attrs: mustprogress uwtable
define internal void @_ZNK5faiss12_GLOBAL__N_114IVFSQScannerL2INS0_10DCTemplateINS0_19Quantizer8bitDirectILi1EEENS0_12SimilarityL2ILi1EEELi1EEELi0EE16scan_codes_rangeEmPKhPKlfRNS_16RangeQueryResultE(ptr nocapture noundef nonnull readonly align 8 dereferenceable(136) %0, i64 noundef %1, ptr nocapture noundef readonly %2, ptr nocapture noundef readonly %3, float noundef %4, ptr noundef nonnull align 8 dereferenceable(24) %5) unnamed_addr #0 align 2 {
  %.not18 = icmp eq i64 %1, 0
  br i1 %.not18, label %._crit_edge, label %.lr.ph

.lr.ph:                                           ; preds = %6
  %7 = getelementptr inbounds i8, ptr %0, i64 80
  %8 = getelementptr inbounds i8, ptr %0, i64 64
  %9 = getelementptr inbounds i8, ptr %0, i64 17
  %10 = getelementptr inbounds i8, ptr %0, i64 8
  %11 = getelementptr inbounds i8, ptr %0, i64 32
  br label %12

12:                                               ; preds = %.lr.ph, %36
  %.017 = phi ptr [ %2, %.lr.ph ], [ %39, %36 ]
  %.01315 = phi i64 [ 0, %.lr.ph ], [ %37, %36 ]
  %.val.i = load i64, ptr %7, align 8
  %.not.i.i = icmp eq i64 %.val.i, 0
  br i1 %.not.i.i, label %_ZNK5faiss12_GLOBAL__N_110DCTemplateINS0_19Quantizer8bitDirectILi1EEENS0_12SimilarityL2ILi1EEELi1EE13query_to_codeEPKh.exit, label %.lr.ph.i.preheader.i

.lr.ph.i.preheader.i:                             ; preds = %12
  %13 = load ptr, ptr %8, align 8
  br label %.lr.ph.i.i

.lr.ph.i.i:                                       ; preds = %.lr.ph.i.i, %.lr.ph.i.preheader.i
  %.04.i.i = phi i64 [ %22, %.lr.ph.i.i ], [ 0, %.lr.ph.i.preheader.i ]
  %.sroa.5.03.i.i = phi float [ %21, %.lr.ph.i.i ], [ 0.000000e+00, %.lr.ph.i.preheader.i ]
  %.sroa.2.02.i.i = phi ptr [ %18, %.lr.ph.i.i ], [ %13, %.lr.ph.i.preheader.i ]
  %sext.i.i = shl i64 %.04.i.i, 32
  %14 = ashr exact i64 %sext.i.i, 32
  %15 = getelementptr inbounds i8, ptr %.017, i64 %14
  %16 = load i8, ptr %15, align 1
  %17 = uitofp i8 %16 to float
  %18 = getelementptr inbounds i8, ptr %.sroa.2.02.i.i, i64 4
  %19 = load float, ptr %.sroa.2.02.i.i, align 4
  %20 = fsub float %19, %17
  %21 = tail call float @llvm.fmuladd.f32(float %20, float %20, float %.sroa.5.03.i.i)
  %22 = add nuw i64 %.04.i.i, 1
  %exitcond.not.i.i = icmp eq i64 %22, %.val.i
  br i1 %exitcond.not.i.i, label %_ZNK5faiss12_GLOBAL__N_110DCTemplateINS0_19Quantizer8bitDirectILi1EEENS0_12SimilarityL2ILi1EEELi1EE13query_to_codeEPKh.exit, label %.lr.ph.i.i, !llvm.loop !59

_ZNK5faiss12_GLOBAL__N_110DCTemplateINS0_19Quantizer8bitDirectILi1EEENS0_12SimilarityL2ILi1EEELi1EE13query_to_codeEPKh.exit: ; preds = %.lr.ph.i.i, %12
  %.sroa.5.0.lcssa.i.i = phi float [ 0.000000e+00, %12 ], [ %21, %.lr.ph.i.i ]
  %23 = fcmp olt float %.sroa.5.0.lcssa.i.i, %4
  br i1 %23, label %24, label %36

24:                                               ; preds = %_ZNK5faiss12_GLOBAL__N_110DCTemplateINS0_19Quantizer8bitDirectILi1EEENS0_12SimilarityL2ILi1EEELi1EE13query_to_codeEPKh.exit
  %25 = load i8, ptr %9, align 1
  %26 = and i8 %25, 1
  %.not = icmp eq i8 %26, 0
  br i1 %.not, label %31, label %27

27:                                               ; preds = %24
  %28 = load i64, ptr %10, align 8
  %29 = shl i64 %28, 32
  %30 = or i64 %29, %.01315
  br label %34

31:                                               ; preds = %24
  %32 = getelementptr inbounds i64, ptr %3, i64 %.01315
  %33 = load i64, ptr %32, align 8
  br label %34

34:                                               ; preds = %31, %27
  %35 = phi i64 [ %30, %27 ], [ %33, %31 ]
  tail call void @_ZN5faiss16RangeQueryResult3addEfl(ptr noundef nonnull align 8 dereferenceable(24) %5, float noundef %.sroa.5.0.lcssa.i.i, i64 noundef %35)
  br label %36

36:                                               ; preds = %_ZNK5faiss12_GLOBAL__N_110DCTemplateINS0_19Quantizer8bitDirectILi1EEENS0_12SimilarityL2ILi1EEELi1EE13query_to_codeEPKh.exit, %34
  %37 = add nuw i64 %.01315, 1
  %38 = load i64, ptr %11, align 8
  %39 = getelementptr inbounds i8, ptr %.017, i64 %38
  %exitcond.not = icmp eq i64 %37, %1
  br i1 %exitcond.not, label %._crit_edge, label %12, !llvm.loop !124

._crit_edge:                                      ; preds = %36, %6
  ret void
}